target datalayout = "e-m:e-p270:32:32-p271:32:32-p272:64:64-i64:64-i128:128-f80:128-n8:16:32:64-S128"
target triple = "x86_64-pc-linux-gnu"

@hwloc_libxml2_needs_cleanup = internal global i32 0, align 4
@.str.16 = private unnamed_addr constant [6 x i8] c"UTF-8\00", align 1

; Function Attrs: nounwind uwtable
define internal void @hwloc_libxml2_cleanup() #0 {
  %1 = load i32, ptr @hwloc_libxml2_needs_cleanup, align 4, !tbaa !12
  %2 = icmp ne i32 %1, 0
  br i1 %2, label %3, label %4

3:                                                ; preds = %0
  call void @xmlCleanupParser()
  br label %4

4:                                                ; preds = %3, %0
  ret void
}

; Function Attrs: nounwind uwtable
define internal i32 @hwloc_libxml_export_file(ptr noundef %0, ptr noundef %1, ptr noundef %2, i64 noundef %3) #0 {
  %5 = alloca i32, align 4
  %6 = alloca ptr, align 8
  %7 = alloca ptr, align 8
  %8 = alloca ptr, align 8
  %9 = alloca i64, align 8
  %10 = alloca ptr, align 8
  %11 = alloca i32, align 4
  %12 = alloca i32, align 4
  store ptr %0, ptr %6, align 8, !tbaa !21
  store ptr %1, ptr %7, align 8, !tbaa !23
  store ptr %2, ptr %8, align 8, !tbaa !7
  store i64 %3, ptr %9, align 8, !tbaa !3
  call void @llvm.lifetime.start.p0(i64 8, ptr %10) #7
  call void @llvm.lifetime.start.p0(i64 4, ptr %11) #7
  %13 = call ptr @__errno_location() #8
  store i32 0, ptr %13, align 4, !tbaa !12
  %14 = load ptr, ptr %6, align 8, !tbaa !21
  %15 = load ptr, ptr %7, align 8, !tbaa !23
  %16 = load i64, ptr %9, align 8, !tbaa !3
  %17 = call ptr @hwloc__libxml2_prepare_export(ptr noundef %14, ptr noundef %15, i64 noundef %16)
  store ptr %17, ptr %10, align 8, !tbaa !14
  %18 = load ptr, ptr %8, align 8, !tbaa !7
  %19 = load ptr, ptr %10, align 8, !tbaa !14
  %20 = call i32 @xmlSaveFormatFileEnc(ptr noundef %18, ptr noundef %19, ptr noundef @.str.16, i32 noundef 1)
  store i32 %20, ptr %11, align 4, !tbaa !12
  %21 = load ptr, ptr %10, align 8, !tbaa !14
  call void @xmlFreeDoc(ptr noundef %21)
  call void @hwloc_libxml2_cleanup()
  %22 = load i32, ptr %11, align 4, !tbaa !12
  %23 = icmp slt i32 %22, 0
  br i1 %23, label %24, label %32

24:                                               ; preds = %4
  %25 = call ptr @__errno_location() #8
  %26 = load i32, ptr %25, align 4, !tbaa !12
  %27 = icmp ne i32 %26, 0
  br i1 %27, label %30, label %28

28:                                               ; preds = %24
  %29 = call ptr @__errno_location() #8
  store i32 22, ptr %29, align 4, !tbaa !12
  br label %30

30:                                               ; preds = %28, %24
  %31 = load i32, ptr %11, align 4, !tbaa !12
  store i32 %31, ptr %5, align 4
  store i32 1, ptr %12, align 4
  br label %33

32:                                               ; preds = %4
  store i32 0, ptr %5, align 4
  store i32 1, ptr %12, align 4
  br label %33

33:                                               ; preds = %32, %30
  call void @llvm.lifetime.end.p0(i64 4, ptr %11) #7
  call void @llvm.lifetime.end.p0(i64 8, ptr %10) #7
  %34 = load i32, ptr %5, align 4
  ret i32 %34
}