; Function Attrs: nounwind uwtable
define internal range(i32 -2147483648, 1) i32 @hwloc_libxml_export_file(ptr noundef %0, ptr noundef %1, ptr noundef %2, i64 noundef %3) #1 {
  %5 = tail call ptr @__errno_location() #12
  store i32 0, ptr %5, align 4, !tbaa !7
  %6 = tail call fastcc ptr @hwloc__libxml2_prepare_export(ptr noundef %0, ptr noundef %1, i64 noundef %3)
  %7 = tail call i32 @xmlSaveFormatFileEnc(ptr noundef %2, ptr noundef %6, ptr noundef nonnull @.str.16, i32 noundef 1) #11
  tail call void @xmlFreeDoc(ptr noundef %6) #11
  %.b.i = load i1, ptr @hwloc_libxml2_needs_cleanup, align 4
  br i1 %.b.i, label %8, label %hwloc_libxml2_cleanup.exit

8:                                                ; preds = %4
  tail call void @xmlCleanupParser() #11
  br label %hwloc_libxml2_cleanup.exit

hwloc_libxml2_cleanup.exit:                       ; preds = %4, %8
  %9 = icmp slt i32 %7, 0
  br i1 %9, label %10, label %13

10:                                               ; preds = %hwloc_libxml2_cleanup.exit
  %11 = load i32, ptr %5, align 4, !tbaa !7
  %.not = icmp eq i32 %11, 0
  br i1 %.not, label %12, label %13

12:                                               ; preds = %10
  store i32 22, ptr %5, align 4, !tbaa !7
  br label %13

13:                                               ; preds = %hwloc_libxml2_cleanup.exit, %10, %12
  %.0 = phi i32 [ %7, %12 ], [ %7, %10 ], [ 0, %hwloc_libxml2_cleanup.exit ]
  ret i32 %.0
}